target datalayout = "e-m:e-p270:32:32-p271:32:32-p272:64:64-i64:64-i128:128-f80:128-n8:16:32:64-S128"
target triple = "x86_64-pc-linux-gnu"

%struct.archive_read_filter = type { i64, ptr, ptr, ptr, ptr, ptr, ptr, i32, i32, i32, ptr, i64, ptr, i64, ptr, i64, ptr, i64, i8, i8, i8 }
%struct.archive_read = type { %struct.archive, ptr, i32, i64, i64, %struct.archive_read_client, [16 x %struct.archive_read_filter_bidder], ptr, i32, i64, i32, i32, [16 x %struct.archive_format_descriptor], ptr, ptr, ptr, %struct.anon }
%struct.archive = type { i32, i32, ptr, i32, ptr, i32, i32, ptr, %struct.archive_string, ptr, i32, i32, ptr, ptr, i64, i64, i64, i8, i64 }
%struct.archive_string = type { ptr, i64, i64 }
%struct.archive_read_client = type { ptr, ptr, ptr, ptr, ptr, ptr, i32, i32, i64, ptr }
%struct.archive_read_filter_bidder = type { ptr, ptr, ptr }
%struct.archive_format_descriptor = type { ptr, ptr, ptr, ptr, ptr, ptr, ptr, ptr, ptr, ptr, ptr }
%struct.anon = type { ptr, ptr, i32, ptr, ptr }
%struct.private_data = type { %struct.bz_stream, ptr, i64, i8, i8 }
%struct.bz_stream = type { ptr, i32, i32, i32, ptr, i32, i32, i32, ptr, ptr, ptr, ptr }

@.str.12 = private unnamed_addr constant [32 x i8] c"Failed to clean up decompressor\00", align 1

; Function Attrs: nounwind uwtable
define internal i32 @bzip2_filter_close(ptr noundef %0) #0 {
  %2 = alloca ptr, align 8
  %3 = alloca ptr, align 8
  %4 = alloca i32, align 4
  store ptr %0, ptr %2, align 8
  store i32 0, ptr %4, align 4
  %5 = load ptr, ptr %2, align 8
  %6 = getelementptr inbounds %struct.archive_read_filter, ptr %5, i32 0, i32 5
  %7 = load ptr, ptr %6, align 8
  store ptr %7, ptr %3, align 8
  %8 = load ptr, ptr %3, align 8
  %9 = getelementptr inbounds %struct.private_data, ptr %8, i32 0, i32 3
  %10 = load i8, ptr %9, align 8
  %11 = icmp ne i8 %10, 0
  br i1 %11, label %12, label %25

12:                                               ; preds = %1
  %13 = load ptr, ptr %3, align 8
  %14 = getelementptr inbounds %struct.private_data, ptr %13, i32 0, i32 0
  %15 = call i32 @BZ2_bzDecompressEnd(ptr noundef %14)
  switch i32 %15, label %17 [
    i32 0, label %16
  ]

16:                                               ; preds = %12
  br label %22

17:                                               ; preds = %12
  %18 = load ptr, ptr %2, align 8
  %19 = getelementptr inbounds %struct.archive_read_filter, ptr %18, i32 0, i32 3
  %20 = load ptr, ptr %19, align 8
  %21 = getelementptr inbounds %struct.archive_read, ptr %20, i32 0, i32 0
  call void (ptr, i32, ptr, ...) @archive_set_error(ptr noundef %21, i32 noundef -1, ptr noundef @.str.12)
  store i32 -30, ptr %4, align 4
  br label %22

22:                                               ; preds = %17, %16
  %23 = load ptr, ptr %3, align 8
  %24 = getelementptr inbounds %struct.private_data, ptr %23, i32 0, i32 3
  store i8 0, ptr %24, align 8
  br label %25

25:                                               ; preds = %22, %1
  %26 = load ptr, ptr %3, align 8
  %27 = getelementptr inbounds %struct.private_data, ptr %26, i32 0, i32 1
  %28 = load ptr, ptr %27, align 8
  call void @free(ptr noundef %28) #9
  %29 = load ptr, ptr %3, align 8
  call void @free(ptr noundef %29) #9
  %30 = load i32, ptr %4, align 4
  ret i32 %30
}