; Function Attrs: nounwind uwtable
define internal range(i32 -30, 1) i32 @bzip2_filter_close(ptr noundef readonly captures(none) %0) #0 {
  %2 = getelementptr inbounds nuw i8, ptr %0, i64 40
  %3 = load ptr, ptr %2, align 8
  %4 = getelementptr inbounds nuw i8, ptr %3, i64 96
  %5 = load i8, ptr %4, align 8
  %.not = icmp eq i8 %5, 0
  br i1 %.not, label %12, label %6

6:                                                ; preds = %1
  %7 = tail call i32 @BZ2_bzDecompressEnd(ptr noundef nonnull %3) #7
  %cond = icmp eq i32 %7, 0
  br i1 %cond, label %11, label %8

8:                                                ; preds = %6
  %9 = getelementptr inbounds nuw i8, ptr %0, i64 24
  %10 = load ptr, ptr %9, align 8
  tail call void (ptr, i32, ptr, ...) @archive_set_error(ptr noundef %10, i32 noundef -1, ptr noundef nonnull @.str.12) #7
  br label %11

11:                                               ; preds = %6, %8
  %.1 = phi i32 [ 0, %6 ], [ -30, %8 ]
  store i8 0, ptr %4, align 8
  br label %12

12:                                               ; preds = %11, %1
  %.0 = phi i32 [ %.1, %11 ], [ 0, %1 ]
  %13 = getelementptr inbounds nuw i8, ptr %3, i64 80
  %14 = load ptr, ptr %13, align 8
  tail call void @free(ptr noundef %14) #7
  tail call void @free(ptr noundef nonnull %3) #7
  ret i32 %.0
}